target datalayout = "e-m:e-p270:32:32-p271:32:32-p272:64:64-i64:64-i128:128-f80:128-n8:16:32:64-S128"
target triple = "x86_64-pc-linux-gnu"

%struct.ExprEvalStep = type { i64, ptr, ptr, %union.anon }
%union.anon = type { %struct.anon.23 }
%struct.anon.23 = type { ptr, ptr, i32, i32, ptr, ptr }
%struct.ItemPointerData = type { %struct.BlockIdData, i16 }
%struct.BlockIdData = type { i16, i16 }
%struct.TupleDescData = type { i32, i32, i32, i32, ptr, [0 x %struct.CompactAttribute] }
%struct.CompactAttribute = type { i32, i16, i8, i8, i8, i8, i8, i8, i8 }
%struct.Expr = type { i32 }
%struct.HeapTupleData = type { i32, %struct.ItemPointerData, i32, ptr }
%struct.anon.49 = type { i32, [0 x i8] }
%struct.anon.25 = type { ptr, ptr, ptr, ptr, i32 }
%struct.FieldStore = type { %struct.Expr, ptr, ptr, ptr, i32 }

@.str.1 = private unnamed_addr constant [17 x i8] c"execExprInterp.c\00", align 1
@.str.14 = private unnamed_addr constant [38 x i8] c"too many columns in composite type %u\00", align 1
@__func__.ExecEvalFieldStoreDeForm = private unnamed_addr constant [25 x i8] c"ExecEvalFieldStoreDeForm\00", align 1

; Function Attrs: inlinehint nounwind uwtable
define internal void @BlockIdSet(ptr noundef %0, i32 noundef %1) #2 {
  %3 = alloca ptr, align 8
  %4 = alloca i32, align 4
  store ptr %0, ptr %3, align 8
  store i32 %1, ptr %4, align 4
  %5 = load i32, ptr %4, align 4
  %6 = lshr i32 %5, 16
  %7 = trunc i32 %6 to i16
  %8 = load ptr, ptr %3, align 8
  %9 = getelementptr inbounds nuw %struct.BlockIdData, ptr %8, i32 0, i32 0
  store i16 %7, ptr %9, align 2
  %10 = load i32, ptr %4, align 4
  %11 = and i32 %10, 65535
  %12 = trunc i32 %11 to i16
  %13 = load ptr, ptr %3, align 8
  %14 = getelementptr inbounds nuw %struct.BlockIdData, ptr %13, i32 0, i32 1
  store i16 %12, ptr %14, align 2
  ret void
}

; Function Attrs: inlinehint nounwind uwtable
define internal void @ItemPointerSetInvalid(ptr noundef %0) #2 {
  %2 = alloca ptr, align 8
  store ptr %0, ptr %2, align 8
  %3 = load ptr, ptr %2, align 8
  %4 = getelementptr inbounds nuw %struct.ItemPointerData, ptr %3, i32 0, i32 0
  call void @BlockIdSet(ptr noundef %4, i32 noundef -1)
  %5 = load ptr, ptr %2, align 8
  %6 = getelementptr inbounds nuw %struct.ItemPointerData, ptr %5, i32 0, i32 1
  store i16 0, ptr %6, align 2
  ret void
}

; Function Attrs: inlinehint nounwind uwtable
define internal i32 @HeapTupleHeaderGetDatumLength(ptr noundef %0) #2 {
  %2 = alloca ptr, align 8
  store ptr %0, ptr %2, align 8
  %3 = load ptr, ptr %2, align 8
  %4 = getelementptr inbounds nuw %struct.anon.49, ptr %3, i32 0, i32 0
  %5 = load i32, ptr %4, align 4
  %6 = lshr i32 %5, 2
  %7 = and i32 %6, 1073741823
  ret i32 %7
}

; Function Attrs: inlinehint nounwind uwtable
define internal ptr @DatumGetPointer(i64 noundef %0) #2 {
  %2 = alloca i64, align 8
  store i64 %0, ptr %2, align 8
  %3 = load i64, ptr %2, align 8
  %4 = inttoptr i64 %3 to ptr
  ret ptr %4
}

; Function Attrs: nounwind uwtable
define dso_local void @ExecEvalFieldStoreDeForm(ptr noundef %0, ptr noundef %1, ptr noundef %2) #0 {
  %4 = alloca ptr, align 8
  %5 = alloca ptr, align 8
  %6 = alloca ptr, align 8
  %7 = alloca i64, align 8
  %8 = alloca ptr, align 8
  %9 = alloca %struct.HeapTupleData, align 8
  %10 = alloca ptr, align 8
  store ptr %0, ptr %4, align 8
  store ptr %1, ptr %5, align 8
  store ptr %2, ptr %6, align 8
  %11 = load ptr, ptr %5, align 8
  %12 = getelementptr inbounds nuw %struct.ExprEvalStep, ptr %11, i32 0, i32 2
  %13 = load ptr, ptr %12, align 8
  %14 = load i8, ptr %13, align 1, !range !7, !noundef !8
  %15 = trunc i8 %14 to i1
  br i1 %15, label %16, label %27

16:                                               ; preds = %3
  %17 = load ptr, ptr %5, align 8
  %18 = getelementptr inbounds nuw %struct.ExprEvalStep, ptr %17, i32 0, i32 3
  %19 = getelementptr inbounds nuw %struct.anon.25, ptr %18, i32 0, i32 3
  %20 = load ptr, ptr %19, align 8
  %21 = load ptr, ptr %5, align 8
  %22 = getelementptr inbounds nuw %struct.ExprEvalStep, ptr %21, i32 0, i32 3
  %23 = getelementptr inbounds nuw %struct.anon.25, ptr %22, i32 0, i32 4
  %24 = load i32, ptr %23, align 8
  %25 = sext i32 %24 to i64
  %26 = mul i64 %25, 1
  call void @llvm.memset.p0.i64(ptr align 1 %20, i8 1, i64 %26, i1 false)
  br label %94

27:                                               ; preds = %3
  call void @llvm.lifetime.start.p0(i64 8, ptr %7) #11
  %28 = load ptr, ptr %5, align 8
  %29 = getelementptr inbounds nuw %struct.ExprEvalStep, ptr %28, i32 0, i32 1
  %30 = load ptr, ptr %29, align 8
  %31 = load i64, ptr %30, align 8
  store i64 %31, ptr %7, align 8
  call void @llvm.lifetime.start.p0(i64 8, ptr %8) #11
  call void @llvm.lifetime.start.p0(i64 24, ptr %9) #11
  call void @llvm.lifetime.start.p0(i64 8, ptr %10) #11
  %32 = load i64, ptr %7, align 8
  %33 = call ptr @DatumGetPointer(i64 noundef %32)
  %34 = call ptr @pg_detoast_datum(ptr noundef %33)
  store ptr %34, ptr %8, align 8
  %35 = load ptr, ptr %8, align 8
  %36 = call i32 @HeapTupleHeaderGetDatumLength(ptr noundef %35)
  %37 = getelementptr inbounds nuw %struct.HeapTupleData, ptr %9, i32 0, i32 0
  store i32 %36, ptr %37, align 8
  %38 = getelementptr inbounds nuw %struct.HeapTupleData, ptr %9, i32 0, i32 1
  call void @ItemPointerSetInvalid(ptr noundef %38)
  %39 = getelementptr inbounds nuw %struct.HeapTupleData, ptr %9, i32 0, i32 2
  store i32 0, ptr %39, align 4
  %40 = load ptr, ptr %8, align 8
  %41 = getelementptr inbounds nuw %struct.HeapTupleData, ptr %9, i32 0, i32 3
  store ptr %40, ptr %41, align 8
  %42 = load ptr, ptr %5, align 8
  %43 = getelementptr inbounds nuw %struct.ExprEvalStep, ptr %42, i32 0, i32 3
  %44 = getelementptr inbounds nuw %struct.anon.25, ptr %43, i32 0, i32 0
  %45 = load ptr, ptr %44, align 8
  %46 = getelementptr inbounds nuw %struct.FieldStore, ptr %45, i32 0, i32 4
  %47 = load i32, ptr %46, align 8
  %48 = load ptr, ptr %5, align 8
  %49 = getelementptr inbounds nuw %struct.ExprEvalStep, ptr %48, i32 0, i32 3
  %50 = getelementptr inbounds nuw %struct.anon.25, ptr %49, i32 0, i32 1
  %51 = load ptr, ptr %50, align 8
  %52 = call ptr @get_cached_rowtype(i32 noundef %47, i32 noundef -1, ptr noundef %51, ptr noundef null)
  store ptr %52, ptr %10, align 8
  %53 = load ptr, ptr %10, align 8
  %54 = getelementptr inbounds nuw %struct.TupleDescData, ptr %53, i32 0, i32 0
  %55 = load i32, ptr %54, align 8
  %56 = load ptr, ptr %5, align 8
  %57 = getelementptr inbounds nuw %struct.ExprEvalStep, ptr %56, i32 0, i32 3
  %58 = getelementptr inbounds nuw %struct.anon.25, ptr %57, i32 0, i32 4
  %59 = load i32, ptr %58, align 8
  %60 = icmp sgt i32 %55, %59
  %61 = zext i1 %60 to i32
  %62 = icmp ne i32 %61, 0
  %63 = zext i1 %62 to i32
  %64 = sext i32 %63 to i64
  %65 = call i64 @llvm.expect.i64(i64 %64, i64 0)
  %66 = icmp ne i64 %65, 0
  br i1 %66, label %67, label %84

67:                                               ; preds = %27
  br label %68

68:                                               ; preds = %67
  br i1 true, label %69, label %71

69:                                               ; preds = %68
  %70 = call zeroext i1 @errstart_cold(i32 noundef 21, ptr noundef null) #12
  br i1 %70, label %73, label %81

71:                                               ; preds = %68
  %72 = call zeroext i1 @errstart(i32 noundef 21, ptr noundef null)
  br i1 %72, label %73, label %81

73:                                               ; preds = %71, %69
  %74 = load ptr, ptr %5, align 8
  %75 = getelementptr inbounds nuw %struct.ExprEvalStep, ptr %74, i32 0, i32 3
  %76 = getelementptr inbounds nuw %struct.anon.25, ptr %75, i32 0, i32 0
  %77 = load ptr, ptr %76, align 8
  %78 = getelementptr inbounds nuw %struct.FieldStore, ptr %77, i32 0, i32 4
  %79 = load i32, ptr %78, align 8
  %80 = call i32 (ptr, ...) @errmsg_internal(ptr noundef @.str.14, i32 noundef %79)
  call void @errfinish(ptr noundef @.str.1, i32 noundef 3810, ptr noundef @__func__.ExecEvalFieldStoreDeForm)
  br label %81

81:                                               ; preds = %73, %71, %69
  unreachable

82:                                               ; No predecessors!
  br label %83

83:                                               ; preds = %82
  br label %84

84:                                               ; preds = %83, %27
  %85 = load ptr, ptr %10, align 8
  %86 = load ptr, ptr %5, align 8
  %87 = getelementptr inbounds nuw %struct.ExprEvalStep, ptr %86, i32 0, i32 3
  %88 = getelementptr inbounds nuw %struct.anon.25, ptr %87, i32 0, i32 2
  %89 = load ptr, ptr %88, align 8
  %90 = load ptr, ptr %5, align 8
  %91 = getelementptr inbounds nuw %struct.ExprEvalStep, ptr %90, i32 0, i32 3
  %92 = getelementptr inbounds nuw %struct.anon.25, ptr %91, i32 0, i32 3
  %93 = load ptr, ptr %92, align 8
  call void @heap_deform_tuple(ptr noundef %9, ptr noundef %85, ptr noundef %89, ptr noundef %93)
  call void @llvm.lifetime.end.p0(i64 8, ptr %10) #11
  call void @llvm.lifetime.end.p0(i64 24, ptr %9) #11
  call void @llvm.lifetime.end.p0(i64 8, ptr %8) #11
  call void @llvm.lifetime.end.p0(i64 8, ptr %7) #11
  br label %94

94:                                               ; preds = %84, %16
  ret void
}