; Function Attrs: nounwind uwtable
define dso_local void @ExecEvalFieldStoreDeForm(ptr readnone captures(none) %0, ptr noundef readonly captures(none) %1, ptr readnone captures(none) %2) local_unnamed_addr #0 {
  %4 = alloca %struct.HeapTupleData, align 8
  %5 = getelementptr inbounds nuw i8, ptr %1, i64 16
  %6 = load ptr, ptr %5, align 8
  %7 = load i8, ptr %6, align 1, !range !8, !noundef !9
  %8 = trunc nuw i8 %7 to i1
  br i1 %8, label %9, label %15

9:                                                ; preds = %3
  %10 = getelementptr inbounds nuw i8, ptr %1, i64 48
  %11 = load ptr, ptr %10, align 8
  %12 = getelementptr inbounds nuw i8, ptr %1, i64 56
  %13 = load i32, ptr %12, align 8
  %14 = sext i32 %13 to i64
  tail call void @llvm.memset.p0.i64(ptr align 1 %11, i8 1, i64 %14, i1 false)
  br label %49

15:                                               ; preds = %3
  %16 = getelementptr inbounds nuw i8, ptr %1, i64 8
  %17 = load ptr, ptr %16, align 8
  %18 = load i64, ptr %17, align 8
  call void @llvm.lifetime.start.p0(i64 24, ptr nonnull %4) #18
  %19 = inttoptr i64 %18 to ptr
  %20 = tail call ptr @pg_detoast_datum(ptr noundef %19) #18
  %.val = load i32, ptr %20, align 4
  %21 = lshr i32 %.val, 2
  store i32 %21, ptr %4, align 8
  %22 = getelementptr inbounds nuw i8, ptr %4, i64 4
  store i16 -1, ptr %22, align 4
  %23 = getelementptr inbounds nuw i8, ptr %4, i64 6
  store i16 -1, ptr %23, align 2
  %24 = getelementptr inbounds nuw i8, ptr %4, i64 8
  store i16 0, ptr %24, align 8
  %25 = getelementptr inbounds nuw i8, ptr %4, i64 12
  store i32 0, ptr %25, align 4
  %26 = getelementptr inbounds nuw i8, ptr %4, i64 16
  store ptr %20, ptr %26, align 8
  %27 = getelementptr inbounds nuw i8, ptr %1, i64 24
  %28 = load ptr, ptr %27, align 8
  %29 = getelementptr inbounds nuw i8, ptr %28, i64 32
  %30 = load i32, ptr %29, align 8
  %31 = getelementptr inbounds nuw i8, ptr %1, i64 32
  %32 = load ptr, ptr %31, align 8
  %33 = tail call fastcc ptr @get_cached_rowtype(i32 noundef %30, i32 noundef -1, ptr noundef %32, ptr noundef null)
  %34 = load i32, ptr %33, align 8
  %35 = getelementptr inbounds nuw i8, ptr %1, i64 56
  %36 = load i32, ptr %35, align 8
  %37 = icmp sgt i32 %34, %36
  br i1 %37, label %38, label %44, !prof !11

38:                                               ; preds = %15
  %39 = tail call zeroext i1 @errstart_cold(i32 noundef 21, ptr noundef null) #19
  tail call void @llvm.assume(i1 %39)
  %40 = load ptr, ptr %27, align 8
  %41 = getelementptr inbounds nuw i8, ptr %40, i64 32
  %42 = load i32, ptr %41, align 8
  %43 = tail call i32 (ptr, ...) @errmsg_internal(ptr noundef nonnull @.str.14, i32 noundef %42) #18
  tail call void @errfinish(ptr noundef nonnull @.str.1, i32 noundef 3810, ptr noundef nonnull @__func__.ExecEvalFieldStoreDeForm) #18
  unreachable

44:                                               ; preds = %15
  %45 = getelementptr inbounds nuw i8, ptr %1, i64 40
  %46 = load ptr, ptr %45, align 8
  %47 = getelementptr inbounds nuw i8, ptr %1, i64 48
  %48 = load ptr, ptr %47, align 8
  call void @heap_deform_tuple(ptr noundef nonnull %4, ptr noundef nonnull %33, ptr noundef %46, ptr noundef %48) #18
  call void @llvm.lifetime.end.p0(i64 24, ptr nonnull %4) #18
  br label %49

49:                                               ; preds = %44, %9
  ret void
}